; Function Attrs: mustprogress uwtable
define noundef zeroext i1 @_ZN6Gluco26Solver8simplifyEv(ptr noundef nonnull align 8 dereferenceable(1416) %0) local_unnamed_addr #2 align 2 {
  %2 = getelementptr inbounds i8, ptr %0, i64 452
  %3 = load i8, ptr %2, align 4
  %4 = and i8 %3, 1
  %.not = icmp eq i8 %4, 0
  br i1 %.not, label %7, label %5

5:                                                ; preds = %1
  %6 = tail call noundef i32 @_ZN6Gluco26Solver9propagateEv(ptr noundef nonnull align 8 dereferenceable(1416) %0)
  %.not2 = icmp eq i32 %6, -1
  br i1 %.not2, label %8, label %7

7:                                                ; preds = %5, %1
  store i8 0, ptr %2, align 4
  br label %50

8:                                                ; preds = %5
  %9 = getelementptr inbounds i8, ptr %0, i64 688
  %10 = load i32, ptr %9, align 8
  %11 = getelementptr inbounds i8, ptr %0, i64 748
  %12 = load i32, ptr %11, align 4
  %13 = icmp eq i32 %10, %12
  br i1 %13, label %50, label %14

14:                                               ; preds = %8
  %15 = getelementptr inbounds i8, ptr %0, i64 752
  %16 = load i64, ptr %15, align 8
  %17 = icmp sgt i64 %16, 0
  br i1 %17, label %50, label %18

18:                                               ; preds = %14
  %19 = getelementptr inbounds i8, ptr %0, i64 616
  tail call void @_ZN6Gluco26Solver15removeSatisfiedERNS_3vecIjEE(ptr noundef nonnull align 8 dereferenceable(1416) %0, ptr noundef nonnull align 8 dereferenceable(16) %19)
  %20 = getelementptr inbounds i8, ptr %0, i64 824
  %21 = load i8, ptr %20, align 8
  %22 = and i8 %21, 1
  %.not3 = icmp eq i8 %22, 0
  br i1 %.not3, label %25, label %23

23:                                               ; preds = %18
  %24 = getelementptr inbounds i8, ptr %0, i64 600
  tail call void @_ZN6Gluco26Solver15removeSatisfiedERNS_3vecIjEE(ptr noundef nonnull align 8 dereferenceable(1416) %0, ptr noundef nonnull align 8 dereferenceable(16) %24)
  br label %25

25:                                               ; preds = %23, %18
  %26 = getelementptr inbounds i8, ptr %0, i64 248
  %27 = load double, ptr %26, align 8
  %28 = getelementptr inbounds i8, ptr %0, i64 880
  %29 = load i32, ptr %28, align 8
  %30 = uitofp i32 %29 to double
  %31 = getelementptr inbounds i8, ptr %0, i64 872
  %32 = load i32, ptr %31, align 8
  %33 = uitofp i32 %32 to double
  %34 = fmul double %27, %33
  %35 = fcmp olt double %34, %30
  br i1 %35, label %36, label %_ZN6Gluco26Solver12checkGarbageEv.exit

36:                                               ; preds = %25
  %37 = load ptr, ptr %0, align 8
  %38 = getelementptr inbounds i8, ptr %37, i64 24
  %39 = load ptr, ptr %38, align 8
  tail call void %39(ptr noundef nonnull align 8 dereferenceable(1416) %0)
  br label %_ZN6Gluco26Solver12checkGarbageEv.exit

_ZN6Gluco26Solver12checkGarbageEv.exit:           ; preds = %25, %36
  %40 = getelementptr inbounds i8, ptr %0, i64 88
  %41 = load i32, ptr %40, align 8
  %.not4 = icmp eq i32 %41, 0
  br i1 %.not4, label %42, label %43

42:                                               ; preds = %_ZN6Gluco26Solver12checkGarbageEv.exit
  tail call void @_ZN6Gluco26Solver16rebuildOrderHeapEv(ptr noundef nonnull align 8 dereferenceable(1416) %0)
  br label %43

43:                                               ; preds = %42, %_ZN6Gluco26Solver12checkGarbageEv.exit
  %44 = load i32, ptr %9, align 8
  store i32 %44, ptr %11, align 4
  %45 = getelementptr inbounds i8, ptr %0, i64 408
  %46 = load i64, ptr %45, align 8
  %47 = getelementptr inbounds i8, ptr %0, i64 416
  %48 = load i64, ptr %47, align 8
  %49 = add nsw i64 %48, %46
  store i64 %49, ptr %15, align 8
  br label %50

50:                                               ; preds = %8, %14, %43, %7
  %.0 = phi i1 [ false, %7 ], [ true, %43 ], [ true, %14 ], [ true, %8 ]
  ret i1 %.0
}